; Function Attrs: mustprogress nounwind uwtable
define internal fastcc void @"_ZSt25__unguarded_linear_insertIN9__gnu_cxx17__normal_iteratorIPSt4pairIN5vcpkg4PathENSt7__cxx1112basic_stringIcSt11char_traitsIcESaIcEEEESt6vectorISB_SaISB_EEEENS0_5__ops14_Val_comp_iterIZNS3_11append_logsEOSF_mRSA_E3$_0EEEvT_T0_"(ptr nonnull %0) unnamed_addr #6 personality ptr @__gxx_personality_v0 {
  %2 = alloca %"struct.std::pair.344", align 8
  call void @_ZNSt7__cxx1112basic_stringIcSt11char_traitsIcESaIcEEC1EOS4_(ptr noundef nonnull align 8 dereferenceable(32) %2, ptr noundef nonnull align 8 dereferenceable(32) %0) #25
  %3 = getelementptr inbounds i8, ptr %2, i64 32
  %4 = getelementptr inbounds i8, ptr %0, i64 32
  call void @_ZNSt7__cxx1112basic_stringIcSt11char_traitsIcESaIcEEC1EOS4_(ptr noundef nonnull align 8 dereferenceable(32) %3, ptr noundef nonnull align 8 dereferenceable(32) %4) #25
  %5 = call noundef i64 @_ZNKSt7__cxx1112basic_stringIcSt11char_traitsIcESaIcEE4sizeEv(ptr noundef nonnull align 8 dereferenceable(32) %3) #25
  %6 = getelementptr inbounds i8, ptr %0, i64 -32
  %7 = call noundef i64 @_ZNKSt7__cxx1112basic_stringIcSt11char_traitsIcESaIcEE4sizeEv(ptr noundef nonnull align 8 dereferenceable(32) %6) #25
  %8 = icmp ult i64 %5, %7
  br i1 %8, label %.lr.ph, label %._crit_edge

.lr.ph:                                           ; preds = %1, %.lr.ph
  %9 = phi ptr [ %14, %.lr.ph ], [ %6, %1 ]
  %.sroa.03.06 = phi ptr [ %.sroa.0.0, %.lr.ph ], [ %0, %1 ]
  %.sroa.0.0 = getelementptr inbounds i8, ptr %.sroa.03.06, i64 -64
  %10 = call noundef nonnull align 8 dereferenceable(32) ptr @_ZNSt7__cxx1112basic_stringIcSt11char_traitsIcESaIcEEaSEOS4_(ptr noundef nonnull align 8 dereferenceable(32) %.sroa.03.06, ptr noundef nonnull align 8 dereferenceable(32) %.sroa.0.0) #25
  %11 = getelementptr inbounds i8, ptr %.sroa.03.06, i64 32
  %12 = call noundef nonnull align 8 dereferenceable(32) ptr @_ZNSt7__cxx1112basic_stringIcSt11char_traitsIcESaIcEEaSEOS4_(ptr noundef nonnull align 8 dereferenceable(32) %11, ptr noundef nonnull align 8 dereferenceable(32) %9) #25
  %13 = call noundef i64 @_ZNKSt7__cxx1112basic_stringIcSt11char_traitsIcESaIcEE4sizeEv(ptr noundef nonnull align 8 dereferenceable(32) %3) #25
  %14 = getelementptr inbounds i8, ptr %.sroa.03.06, i64 -96
  %15 = call noundef i64 @_ZNKSt7__cxx1112basic_stringIcSt11char_traitsIcESaIcEE4sizeEv(ptr noundef nonnull align 8 dereferenceable(32) %14) #25
  %16 = icmp ult i64 %13, %15
  br i1 %16, label %.lr.ph, label %._crit_edge, !llvm.loop !448

._crit_edge:                                      ; preds = %.lr.ph, %1
  %.sroa.03.0.lcssa = phi ptr [ %0, %1 ], [ %.sroa.0.0, %.lr.ph ]
  %17 = call noundef nonnull align 8 dereferenceable(32) ptr @_ZNSt7__cxx1112basic_stringIcSt11char_traitsIcESaIcEEaSEOS4_(ptr noundef nonnull align 8 dereferenceable(32) %.sroa.03.0.lcssa, ptr noundef nonnull align 8 dereferenceable(32) %2) #25
  %18 = getelementptr inbounds i8, ptr %.sroa.03.0.lcssa, i64 32
  %19 = call noundef nonnull align 8 dereferenceable(32) ptr @_ZNSt7__cxx1112basic_stringIcSt11char_traitsIcESaIcEEaSEOS4_(ptr noundef nonnull align 8 dereferenceable(32) %18, ptr noundef nonnull align 8 dereferenceable(32) %3) #25
  call void @_ZNSt7__cxx1112basic_stringIcSt11char_traitsIcESaIcEED1Ev(ptr noundef nonnull align 8 dereferenceable(32) %3) #25
  call void @_ZNSt7__cxx1112basic_stringIcSt11char_traitsIcESaIcEED1Ev(ptr noundef nonnull align 8 dereferenceable(32) %2) #25
  ret void
}